target datalayout = "e-m:e-p270:32:32-p271:32:32-p272:64:64-i64:64-i128:128-f80:128-n8:16:32:64-S128"
target triple = "x86_64-pc-linux-gnu"

%struct.pmix_class_t = type { ptr, ptr, ptr, ptr, i32, i32, ptr, ptr, i64 }
%struct.prte_bp_graph_edge_t = type { %struct.pmix_object_t, %struct.pmix_list_item_t, %struct.pmix_list_item_t, i32, i32, i64, i32, ptr }
%struct.pmix_object_t = type { %union.pthread_mutex_t, ptr, i32, %struct.pmix_tma }
%union.pthread_mutex_t = type { %struct.__pthread_mutex_s }
%struct.__pthread_mutex_s = type { i32, i32, i32, i32, i32, i16, i16, %struct.__pthread_internal_list }
%struct.__pthread_internal_list = type { ptr, ptr }
%struct.pmix_tma = type { ptr, ptr, ptr, ptr, ptr, ptr, ptr, ptr }
%struct.pmix_list_item_t = type { %struct.pmix_object_t, ptr, ptr, i32 }

; Function Attrs: inlinehint nounwind uwtable
define internal void @pmix_obj_run_destructors(ptr noundef %0) #4 {
  %2 = alloca ptr, align 8
  %3 = alloca ptr, align 8
  store ptr %0, ptr %2, align 8, !tbaa !31
  call void @llvm.lifetime.start.p0(i64 8, ptr %3) #12
  %4 = load ptr, ptr %2, align 8, !tbaa !31
  %5 = getelementptr inbounds nuw %struct.pmix_object_t, ptr %4, i32 0, i32 1
  %6 = load ptr, ptr %5, align 8, !tbaa !15
  %7 = getelementptr inbounds nuw %struct.pmix_class_t, ptr %6, i32 0, i32 7
  %8 = load ptr, ptr %7, align 8, !tbaa !72
  store ptr %8, ptr %3, align 8, !tbaa !19
  br label %9

9:                                                ; preds = %13, %1
  %10 = load ptr, ptr %3, align 8, !tbaa !19
  %11 = load ptr, ptr %10, align 8, !tbaa !19
  %12 = icmp ne ptr null, %11
  br i1 %12, label %13, label %19

13:                                               ; preds = %9
  %14 = load ptr, ptr %3, align 8, !tbaa !19
  %15 = load ptr, ptr %14, align 8, !tbaa !19
  %16 = load ptr, ptr %2, align 8, !tbaa !31
  call void %15(ptr noundef %16)
  %17 = load ptr, ptr %3, align 8, !tbaa !19
  %18 = getelementptr inbounds nuw ptr, ptr %17, i32 1
  store ptr %18, ptr %3, align 8, !tbaa !19
  br label %9, !llvm.loop !73

19:                                               ; preds = %9
  call void @llvm.lifetime.end.p0(i64 8, ptr %3) #12
  ret void
}

; Function Attrs: nounwind uwtable
define internal void @edge_destructor(ptr noundef %0) #0 {
  %2 = alloca ptr, align 8
  store ptr %0, ptr %2, align 8, !tbaa !3
  br label %3

3:                                                ; preds = %1
  %4 = load ptr, ptr %2, align 8, !tbaa !3
  %5 = getelementptr inbounds nuw %struct.prte_bp_graph_edge_t, ptr %4, i32 0, i32 1
  call void @pmix_obj_run_destructors(ptr noundef %5)
  br label %6

6:                                                ; preds = %3
  br label %7

7:                                                ; preds = %6
  %8 = load ptr, ptr %2, align 8, !tbaa !3
  %9 = getelementptr inbounds nuw %struct.prte_bp_graph_edge_t, ptr %8, i32 0, i32 2
  call void @pmix_obj_run_destructors(ptr noundef %9)
  br label %10

10:                                               ; preds = %7
  ret void
}