; Function Attrs: nounwind uwtable
define internal void @edge_destructor(ptr noundef %0) #0 {
  %2 = getelementptr inbounds nuw i8, ptr %0, i64 120
  %3 = getelementptr inbounds nuw i8, ptr %0, i64 160
  %4 = load ptr, ptr %3, align 8, !tbaa !13
  %5 = getelementptr inbounds nuw i8, ptr %4, i64 48
  %6 = load ptr, ptr %5, align 8, !tbaa !21
  %7 = load ptr, ptr %6, align 8, !tbaa !18
  %.not6.i = icmp eq ptr %7, null
  br i1 %.not6.i, label %pmix_obj_run_destructors.exit, label %.lr.ph.i

.lr.ph.i:                                         ; preds = %1, %.lr.ph.i
  %8 = phi ptr [ %10, %.lr.ph.i ], [ %7, %1 ]
  %.07.i = phi ptr [ %9, %.lr.ph.i ], [ %6, %1 ]
  tail call void %8(ptr noundef nonnull %2) #14
  %9 = getelementptr inbounds nuw i8, ptr %.07.i, i64 8
  %10 = load ptr, ptr %9, align 8, !tbaa !18
  %.not.i = icmp eq ptr %10, null
  br i1 %.not.i, label %pmix_obj_run_destructors.exit, label %.lr.ph.i, !llvm.loop !22

pmix_obj_run_destructors.exit:                    ; preds = %.lr.ph.i, %1
  %11 = getelementptr inbounds nuw i8, ptr %0, i64 264
  %12 = getelementptr inbounds nuw i8, ptr %0, i64 304
  %13 = load ptr, ptr %12, align 8, !tbaa !13
  %14 = getelementptr inbounds nuw i8, ptr %13, i64 48
  %15 = load ptr, ptr %14, align 8, !tbaa !21
  %16 = load ptr, ptr %15, align 8, !tbaa !18
  %.not6.i2 = icmp eq ptr %16, null
  br i1 %.not6.i2, label %pmix_obj_run_destructors.exit6, label %.lr.ph.i3

.lr.ph.i3:                                        ; preds = %pmix_obj_run_destructors.exit, %.lr.ph.i3
  %17 = phi ptr [ %19, %.lr.ph.i3 ], [ %16, %pmix_obj_run_destructors.exit ]
  %.07.i4 = phi ptr [ %18, %.lr.ph.i3 ], [ %15, %pmix_obj_run_destructors.exit ]
  tail call void %17(ptr noundef nonnull %11) #14
  %18 = getelementptr inbounds nuw i8, ptr %.07.i4, i64 8
  %19 = load ptr, ptr %18, align 8, !tbaa !18
  %.not.i5 = icmp eq ptr %19, null
  br i1 %.not.i5, label %pmix_obj_run_destructors.exit6, label %.lr.ph.i3, !llvm.loop !22

pmix_obj_run_destructors.exit6:                   ; preds = %.lr.ph.i3, %pmix_obj_run_destructors.exit
  ret void
}